target datalayout = "e-m:e-p270:32:32-p271:32:32-p272:64:64-i64:64-i128:128-f80:128-n8:16:32:64-S128"
target triple = "x86_64-pc-linux-gnu"

@.str.1024 = private unnamed_addr constant [1 x i8] zeroinitializer, align 1
@.str.1025 = private unnamed_addr constant [21 x i8] c"[Error: value > 34] \00", align 1
@.str.1026 = private unnamed_addr constant [22 x i8] c"[Warning: value < 2] \00", align 1
@.str.1027 = private unnamed_addr constant [19 x i8] c"%s%lE degrees (%i)\00", align 1

; Function Attrs: null_pointer_is_valid sspstrong uwtable
define internal void @latitude_or_longitude_resolution(ptr noundef %0, i8 noundef zeroext %1) #0 {
  %3 = alloca ptr, align 8
  %4 = alloca i8, align 1
  %5 = alloca i32, align 4
  %6 = alloca double, align 8
  %7 = alloca i32, align 4
  %8 = alloca ptr, align 8
  store ptr %0, ptr %3, align 8
  store i8 %1, ptr %4, align 1
  call void @llvm.lifetime.start.p0(i64 4, ptr %5) #9
  %9 = load i8, ptr %4, align 1
  %10 = zext i8 %9 to i32
  %11 = and i32 %10, 63
  store i32 %11, ptr %5, align 4
  call void @llvm.lifetime.start.p0(i64 8, ptr %6) #9
  store double 1.000000e+00, ptr %6, align 8
  call void @llvm.lifetime.start.p0(i64 4, ptr %7) #9
  %12 = load i32, ptr %5, align 4
  %13 = sub i32 8, %12
  store i32 %13, ptr %7, align 4
  br label %14

14:                                               ; preds = %17, %2
  %15 = load i32, ptr %7, align 4
  %16 = icmp sgt i32 %15, 0
  br i1 %16, label %17, label %22

17:                                               ; preds = %14
  %18 = load double, ptr %6, align 8
  %19 = fmul double %18, 2.000000e+00
  store double %19, ptr %6, align 8
  %20 = load i32, ptr %7, align 4
  %21 = add i32 %20, -1
  store i32 %21, ptr %7, align 4
  br label %14, !llvm.loop !6

22:                                               ; preds = %14
  br label %23

23:                                               ; preds = %26, %22
  %24 = load i32, ptr %7, align 4
  %25 = icmp slt i32 %24, 0
  br i1 %25, label %26, label %31

26:                                               ; preds = %23
  %27 = load double, ptr %6, align 8
  %28 = fdiv double %27, 2.000000e+00
  store double %28, ptr %6, align 8
  %29 = load i32, ptr %7, align 4
  %30 = add i32 %29, 1
  store i32 %30, ptr %7, align 4
  br label %23, !llvm.loop !8

31:                                               ; preds = %23
  call void @llvm.lifetime.start.p0(i64 8, ptr %8) #9
  store ptr @.str.1024, ptr %8, align 8
  %32 = load i32, ptr %5, align 4
  %33 = icmp sgt i32 %32, 34
  br i1 %33, label %34, label %35

34:                                               ; preds = %31
  store ptr @.str.1025, ptr %8, align 8
  br label %40

35:                                               ; preds = %31
  %36 = load i32, ptr %5, align 4
  %37 = icmp slt i32 %36, 2
  br i1 %37, label %38, label %39

38:                                               ; preds = %35
  store ptr @.str.1026, ptr %8, align 8
  br label %39

39:                                               ; preds = %38, %35
  br label %40

40:                                               ; preds = %39, %34
  %41 = load ptr, ptr %3, align 8
  %42 = load ptr, ptr %3, align 8
  %43 = call i64 @llvm.objectsize.i64.p0(ptr %42, i1 false, i1 true, i1 true)
  %44 = load ptr, ptr %8, align 8
  %45 = load double, ptr %6, align 8
  %46 = load i32, ptr %5, align 4
  %47 = call i32 (ptr, i64, i32, i64, ptr, ...) @__snprintf_chk(ptr noundef %41, i64 noundef 240, i32 noundef 2, i64 noundef %43, ptr noundef @.str.1027, ptr noundef %44, double noundef %45, i32 noundef %46)
  call void @llvm.lifetime.end.p0(i64 8, ptr %8) #9
  call void @llvm.lifetime.end.p0(i64 4, ptr %7) #9
  call void @llvm.lifetime.end.p0(i64 8, ptr %6) #9
  call void @llvm.lifetime.end.p0(i64 4, ptr %5) #9
  ret void
}